(lp1
S'http://www.food.com/library/corn-syrup-138'
p2
aS'http://www.food.com/library/craisin-895'
p3
aS'http://www.food.com/library/creme-de-menthe-649'
p4
aS'http://www.food.com/library/grand-marnier-181'
p5
aS'http://www.food.com/library/rutabaga-133'
p6
aS'http://www.food.com/library/pinto-bean-196'
p7
aS'http://www.food.com/library/pistachio-338'
p8
aS'http://www.food.com/library/butternut-squash-131'
p9
aS'http://www.food.com/library/copha-747'
p10
aS'http://www.food.com/library/won-ton-skin-418'
p11
aS'http://www.food.com/library/plantain-279'
p12
aS'http://www.food.com/library/cilantro-16'
p13
aS'http://www.food.com/library/vegemite-919'
p14
aS'http://www.food.com/library/suet-636'
p15
aS'http://www.food.com/library/canadian-bacon-601'
p16
aS'http://www.food.com/library/graham-cracker-376'
p17
aS'http://www.food.com/library/chipotle-pepper-450'
p18
aS'http://www.food.com/library/smoked-salmon-53'
p19
aS'http://www.food.com/library/bourbon-178'
p20
aS'http://www.food.com/library/morel-267'
p21
aS'http://www.food.com/library/berry-201'
p22
aS'http://www.food.com/library/curry-leaf-508'
p23
aS'http://www.food.com/library/ketchup-156'
p24
aS'http://www.food.com/library/sausage-295'
p25
aS'http://www.food.com/library/bitter-melon-785'
p26
aS'http://www.food.com/library/kasha-660'
p27
aS'http://www.food.com/library/nutmeg-333'
p28
aS'http://www.food.com/library/cucumber-235'
p29
aS'http://www.food.com/library/water-459'
p30
aS'http://www.food.com/library/parmesan-cheese-467'
p31
aS'http://www.food.com/library/mushroom-110'
p32
aS'http://www.food.com/library/cannellini-bean-448'
p33
aS'http://www.food.com/library/tatsoi-716'
p34
aS'http://www.food.com/library/grating-cheese-570'
p35
aS'http://www.food.com/library/bisque-749'
p36
aS'http://www.food.com/library/buckwheat-411'
p37
aS'http://www.food.com/library/demi-glace-30'
p38
aS'http://www.food.com/library/marmalade-849'
p39
aS'http://www.food.com/library/ginger-beer-658'
p40
aS'http://www.food.com/library/ketjap-manis-843'
p41
aS'http://www.food.com/library/muscovado-sugar-694'
p42
aS'http://www.food.com/library/garlic-165'
p43
aS'http://www.food.com/library/cider-vinegar-525'
p44
aS'http://www.food.com/library/sherry-388'
p45
aS'http://www.food.com/library/cod-227'
p46
aS'http://www.food.com/library/currant-236'
p47
aS'http://www.food.com/library/haddock-73'
p48
aS'http://www.food.com/library/coconut-107'
p49
aS'http://www.food.com/library/catfish-70'
p50
aS'http://www.food.com/library/bay-leaf-163'
p51
aS'http://www.food.com/library/farina-483'
p52
aS'http://www.food.com/library/molasses-331'
p53
aS'http://www.food.com/library/lemon-125'
p54
aS'http://www.food.com/library/brandy-179'
p55
aS'http://www.food.com/library/marjoram-329'
p56
aS'http://www.food.com/library/margarine-421'
p57
aS'http://www.food.com/library/quail-676'
p58
aS'http://www.food.com/library/souffle-167'
p59
aS'http://www.food.com/library/nopale-548'
p60
aS'http://www.food.com/library/spinach-301'
p61
aS'http://www.food.com/library/hominy-553'
p62
aS'http://www.food.com/library/cornstarch-137'
p63
aS'http://www.food.com/library/zucchini-316'
p64
aS'http://www.food.com/library/calvados-707'
p65
aS'http://www.food.com/library/flour-64'
p66
aS'http://www.food.com/library/pasta-273'
p67
aS'http://www.food.com/library/cool-whip-648'
p68
aS'http://www.food.com/library/arrowroot-365'
p69
aS'http://www.food.com/library/crab-231'
p70
aS'http://www.food.com/library/kirsch-88'
p71
aS'http://www.food.com/library/sultana-691'
p72
aS'http://www.food.com/library/cranberry-bean-702'
p73
aS'http://www.food.com/library/pink-bean-404'
p74
aS'http://www.food.com/library/onion-148'
p75
aS'http://www.food.com/library/irish-cream-liqueur-900'
p76
aS'http://www.food.com/library/broccoli-raab-207'
p77
aS'http://www.food.com/library/epazote-667'
p78
aS'http://www.food.com/library/panir-422'
p79
aS'http://www.food.com/library/apple-pie-spice-162'
p80
aS'http://www.food.com/library/chili-sauce-15'
p81
aS'http://www.food.com/library/tarragon-347'
p82
aS'http://www.food.com/library/vodka-846'
p83
aS'http://www.food.com/library/chili-powder-719'
p84
aS'http://www.food.com/library/edam-622'
p85
aS'http://www.food.com/library/chambord-654'
p86
aS'http://www.food.com/library/portabella-103'
p87
aS'http://www.food.com/library/focaccia-63'
p88
aS'http://www.food.com/library/seitan-436'
p89
aS'http://www.food.com/library/ganache-808'
p90
aS'http://www.food.com/library/quinoa-533'
p91
aS'http://www.food.com/library/scallop-83'
p92
aS'http://www.food.com/library/recaito-514'
p93
aS'http://www.food.com/library/asiago-cheese-613'
p94
aS'http://www.food.com/library/tuna-395'
p95
aS'http://www.food.com/library/wasabi-351'
p96
aS'http://www.food.com/library/water-chestnut-510'
p97
aS'http://www.food.com/library/rice-wine-97'
p98
aS'http://www.food.com/library/litchi-610'
p99
aS'http://www.food.com/library/amarula-cream-liqueur-858'
p100
aS'http://www.food.com/library/apple-186'
p101
aS'http://www.food.com/library/carob-703'
p102
aS'http://www.food.com/library/endive-239'
p103
aS'http://www.food.com/library/mustard-prepared-332'
p104
aS'http://www.food.com/library/celery-seed-321'
p105
aS'http://www.food.com/library/lotus-563'
p106
aS'http://www.food.com/library/wattleseed-832'
p107
aS'http://www.food.com/library/half-and-half-445'
p108
aS'http://www.food.com/library/lavender-327'
p109
aS'http://www.food.com/library/rotel-tomatoes-449'
p110
aS'http://www.food.com/library/white-bean-197'
p111
aS'http://www.food.com/library/horseradish-169'
p112
aS'http://www.food.com/library/ginger-ale-830'
p113
aS'http://www.food.com/library/vanilla-350'
p114
aS'http://www.food.com/library/passion-fruit-272'
p115
aS'http://www.food.com/library/file-powder-902'
p116
aS'http://www.food.com/library/soy-sauce-473'
p117
aS'http://www.food.com/recipe/basic-butter-crust-17834'
p118
aS'http://www.food.com/library/acorn-squash-130'
p119
aS'http://www.food.com/library/rice-160'
p120
aS'http://www.food.com/library/canola-oil-387'
p121
aS'http://www.food.com/library/avocado-190'
p122
aS'http://www.food.com/library/blueberry-67'
p123
aS'http://www.food.com/library/pesto-850'
p124
aS'http://www.food.com/library/cumin-20'
p125
aS'http://www.food.com/library/teff-880'
p126
aS'http://www.food.com/library/bouillon-575'
p127
aS'http://www.food.com/library/bacon-grease-492'
p128
aS'http://www.food.com/library/cabbage-210'
p129
aS'http://www.food.com/library/romaine-lettuce-292'
p130
aS'http://www.food.com/library/lovage-655'
p131
aS'http://www.food.com/library/shallot-127'
p132
aS'http://www.food.com/library/marsala-183'
p133
aS'http://www.food.com/library/coconut-oil-865'
p134
aS'http://www.food.com/library/fermented-black-bean-580'
p135
aS'http://www.food.com/library/sumac-447'
p136
aS'http://www.food.com/library/fructose-549'
p137
aS'http://www.food.com/library/pierogi-824'
p138
aS'http://www.food.com/library/havarti-591'
p139
aS'http://www.food.com/library/i-cant-believe-its-not-butter-825'
p140
aS'http://www.food.com/library/gumbo-586'
p141
aS'http://www.food.com/library/lemon-balm-606'
p142
aS'http://www.food.com/library/blue-cheese-911'
p143
aS'http://www.food.com/library/custard-237'
p144
aS'http://www.food.com/library/berbere-841'
p145
aS'http://www.food.com/library/potato-starch-908'
p146
aS'http://www.food.com/library/beef-round-cuts-818'
p147
aS'http://www.food.com/library/salt-pork-115'
p148
aS'http://www.food.com/library/bok-choy-11'
p149
aS'http://www.food.com/library/lima-bean-195'
p150
aS'http://www.food.com/library/tandoori-paste-95'
p151
aS'http://www.food.com/library/sorghum-882'
p152
aS'http://www.food.com/library/curry-powder-487'
p153
aS'http://www.food.com/recipe/crumb-cake-mix-121352'
p154
aS'http://www.food.com/library/specialty-cheese-913'
p155
aS'http://www.food.com/library/squid-302'
p156
aS'http://www.food.com/library/lime-260'
p157
aS'http://www.food.com/library/corn-229'
p158
aS'http://www.food.com/library/evaporated-milk-500'
p159
aS'http://www.food.com/library/jicama-31'
p160
aS'http://www.food.com/library/poppy-seed-339'
p161
aS'http://www.food.com/library/clove-325'
p162
aS'http://www.food.com/library/shitake-296'
p163
aS'http://www.food.com/library/oregano-334'
p164
aS'http://www.food.com/library/cremini-mushroom-512'
p165
aS'http://www.food.com/library/mayonnaise-159'
p166
aS'http://www.food.com/library/velveeta-751'
p167
aS'http://www.food.com/library/citron-639'
p168
aS'http://www.food.com/library/pancetta-544'
p169
aS'http://www.food.com/library/spearmint-174'
p170
aS'http://www.food.com/library/mango-263'
p171
aS'http://www.food.com/library/calabaza-752'
p172
aS'http://www.food.com/library/pear-275'
p173
aS'http://www.food.com/library/edamame-673'
p174
aS'http://www.food.com/library/bean-thread-10'
p175
aS'http://www.food.com/library/melon-265'
p176
aS'http://www.food.com/library/granola-833'
p177
aS'http://www.food.com/library/mint-330'
p178
aS'http://www.food.com/library/raisin-57'
p179
aS'http://www.food.com/library/vinegar-680'
p180
aS'http://www.food.com/library/chicken-221'
p181
aS'http://www.food.com/library/snap-pea-298'
p182
aS'http://www.food.com/library/sazon-765'
p183
aS'http://www.food.com/library/ham-247'
p184
aS'http://www.food.com/library/agar-664'
p185
aS'http://www.food.com/library/hoisin-sauce-29'
p186
aS'http://www.food.com/library/jack-cheese-565'
p187
aS'http://www.food.com/library/seville-orange-584'
p188
aS'http://www.food.com/library/garlic-powder-501'
p189
aS'http://www.food.com/library/french-fry-372'
p190
aS'http://www.food.com/library/sour-cream-147'
p191
aS'http://www.food.com/library/celery-216'
p192
aS'http://www.food.com/recipe/emerils-essence-creole-seasoning-41970'
p193
aS'http://www.food.com/library/hash-browns-552'
p194
aS'http://www.food.com/library/stevia-779'
p195
aS'http://www.food.com/library/turnip-311'
p196
aS'http://www.food.com/library/colby-624'
p197
aS'http://www.food.com/library/eau-de-vie-674'
p198
aS'http://www.food.com/library/walnut-314'
p199
aS'http://www.food.com/library/caerphilly-423'
p200
aS'http://www.food.com/library/ricotta-cheese-291'
p201
aS'http://www.food.com/library/tortilla-657'
p202
aS'http://www.food.com/library/rosemary-340'
p203
aS'http://www.food.com/library/tomato-151'
p204
aS'http://www.food.com/library/scotch-bonnet-chile-523'
p205
aS'http://www.food.com/library/date-124'
p206
aS'http://www.food.com/library/bulgur-wheat-209'
p207
aS'http://www.food.com/recipe/lemon-curd-37890'
p208
aS'http://www.food.com/library/brown-sugar-375'
p209
aS'http://www.food.com/library/kahlua-182'
p210
aS'http://www.food.com/library/pea-274'
p211
aS'http://www.food.com/library/vanilla-bean-175'
p212
aS'http://www.food.com/library/vegetarian-brand-names-909'
p213
aS'http://www.food.com/library/stuffing-305'
p214
aS'http://www.food.com/library/red-pepper-flakes-507'
p215
aS'http://www.food.com/library/halibut-74'
p216
aS'http://www.food.com/library/cherry-218'
p217
aS'http://www.food.com/library/vermouth-647'
p218
aS'http://www.food.com/library/satay-111'
p219
aS'http://www.food.com/library/ale-801'
p220
aS'http://www.food.com/library/peppadew-pepper-921'
p221
aS'http://www.food.com/library/peanut-butter-460'
p222
aS'http://www.food.com/library/instant-espresso-54'
p223
aS'http://www.food.com/library/matzo-meal-464'
p224
aS'http://www.food.com/library/broccoli-206'
p225
aS'http://www.food.com/library/kohlrabi-256'
p226
aS'http://www.food.com/library/amaretti-885'
p227
aS'http://www.food.com/library/palm-sugar-894'
p228
aS'http://www.food.com/library/amaranth-646'
p229
aS'http://www.food.com/library/lumpia-wrapper-463'
p230
aS'http://www.food.com/library/carrot-213'
p231
aS'http://www.food.com/library/asadero-663'
p232
aS'http://www.food.com/library/pheasant-732'
p233
aS'http://www.food.com/library/weetabix-859'
p234
aS'http://www.food.com/library/campden-tablet-428'
p235
aS'http://www.food.com/library/artificial-sweetener-516'
p236
aS'http://www.food.com/library/chayote-437'
p237
aS'http://www.food.com/library/strawberry-304'
p238
aS'http://www.food.com/library/sauerkraut-294'
p239
aS'http://www.food.com/library/pastis-650'
p240
aS'http://www.food.com/library/annatto-seed-397'
p241
aS'http://www.food.com/library/sugar-139'
p242
aS'http://www.food.com/library/galangal-537'
p243
aS'http://www.food.com/library/romano-cheese-496'
p244
aS'http://www.food.com/library/curacao-432'
p245
aS'http://www.food.com/library/sambal-513'
p246
aS'http://www.food.com/library/bouquet-garni-446'
p247
aS'http://www.food.com/library/golden-syrup-417'
p248
aS'http://www.food.com/library/bean-sprouts-198'
p249
aS'http://www.food.com/library/aleppo-pepper-583'
p250
aS'http://www.food.com/library/olive-455'
p251
aS'http://www.food.com/library/wine-184'
p252
aS'http://www.food.com/library/radicchio-41'
p253
aS'http://www.food.com/library/sweet-pepper-150'
p254
aS'http://www.food.com/library/beer-stick-451'
p255
aS'http://www.food.com/library/blackberry-202'
p256
aS'http://www.food.com/library/smelt-90'
p257
aS'http://www.food.com/library/banana-61'
p258
aS'http://www.food.com/library/sago-635'
p259
aS'http://www.food.com/library/mussel-268'
p260
aS'http://www.food.com/library/alfalfa-sprouts-802'
p261
aS'http://www.food.com/library/hungarian-wax-chile-576'
p262
aS'http://www.food.com/library/maraschino-cherry-277'
p263
aS'http://www.food.com/library/kamaboko-906'
p264
aS'http://www.food.com/library/prosciutto-283'
p265
aS'http://www.food.com/library/heavy-cream-361'
p266
aS'http://www.food.com/library/pumpkin-285'
p267
aS'http://www.food.com/library/flax-seed-684'
p268
aS'http://www.food.com/library/jambalaya-587'
p269
aS'http://www.food.com/library/almond-paste-547'
p270
aS'http://www.food.com/library/cottage-cheese-602'
p271
aS'http://www.food.com/library/andouille-sausage-476'
p272
aS'http://www.food.com/library/aioli-1'
p273
aS'http://www.food.com/library/ginger-syrup-443'
p274
aS'http://www.food.com/library/chervil-322'
p275
aS'http://www.food.com/library/biscuit-mix-408'
p276
aS'http://www.food.com/library/lemon-grass-34'
p277
aS'http://www.food.com/library/chai-705'
p278
aS'http://www.food.com/library/bagel-776'
p279
aS'http://www.food.com/library/pico-de-gallo-853'
p280
aS'http://www.food.com/library/kalamata-olive-32'
p281
aS'http://www.food.com/library/parchment-paper-651'
p282
aS'http://www.food.com/library/african-birdseye-chile-pepper-769'
p283
aS'http://www.food.com/library/tasso-413'
p284
aS'http://www.food.com/library/allspice-161'
p285
aS'http://www.food.com/library/ponzu-562'
p286
aS'http://www.food.com/library/buckwheat-groat-412'
p287
aS'http://www.food.com/library/baking-powder-6'
p288
aS'http://www.food.com/library/persimmon-457'
p289
aS'http://www.food.com/library/radiatore-91'
p290
aS'http://www.food.com/library/chutney-637'
p291
aS'http://www.food.com/library/black-olive-498'
p292
aS'http://www.food.com/library/lardon-608'
p293
aS'http://www.food.com/library/feijoa-671'
p294
aS'http://www.food.com/library/tamarind-346'
p295
aS'http://www.food.com/library/habanero-chile-522'
p296
aS'http://www.food.com/library/beef-199'
p297
aS'http://www.food.com/library/tomato-puree-731'
p298
aS'http://www.food.com/library/miso-36'
p299
aS'http://www.food.com/library/polenta-40'
p300
aS'http://www.food.com/library/vegan-brand-names-910'
p301
aS'http://www.food.com/library/savory-343'
p302
aS'http://www.food.com/library/ham-hock-494'
p303
aS'http://www.food.com/library/almond-butter-453'
p304
aS'http://www.food.com/library/gluten-486'
p305
aS'http://www.food.com/library/crayfish-234'
p306
aS'http://www.food.com/library/sesame-seed-344'
p307
aS'http://www.food.com/library/papaya-149'
p308
aS'http://www.food.com/library/swordfish-82'
p309
aS'http://www.food.com/library/english-muffin-819'
p310
aS'http://www.food.com/library/venison-313'
p311
aS'http://www.food.com/library/shrimp-297'
p312
aS'http://www.food.com/library/boursin-cheese-87'
p313
aS'http://www.food.com/library/kidney-bean-401'
p314
aS'http://www.food.com/library/yeast-62'
p315
aS'http://www.food.com/library/parsley-171'
p316
aS'http://www.food.com/library/vital-wheat-gluten-901'
p317
aS'http://www.food.com/library/pecan-276'
p318
aS'http://www.food.com/library/caviar-215'
p319
aS'http://www.food.com/library/corn-flour-638'
p320
aS'http://www.food.com/library/spaghetti-squash-132'
p321
aS'http://www.food.com/library/salsa-835'
p322
aS'http://www.food.com/library/honeydew-melon-251'
p323
aS'http://www.food.com/library/urad-dal-509'
p324
aS'http://www.food.com/library/sorrel-299'
p325
aS'http://www.food.com/library/duck-238'
p326
aS'http://www.food.com/library/azuki-bean-890'
p327
aS'http://www.food.com/library/anise-4'
p328
aS'http://www.food.com/library/chestnut-219'
p329
aS'http://www.food.com/library/coconut-milk-or-cream-145'
p330
aS'http://www.food.com/library/lemon-juice-55'
p331
aS'http://www.food.com/library/marshmallow-358'
p332
aS'http://www.food.com/library/rose-water-468'
p333
aS'http://www.food.com/library/escalope-842'
p334
aS'http://www.food.com/library/coffee-228'
p335
aS'http://www.food.com/library/kielbasa-414'
p336
aS'http://www.food.com/library/sage-342'
p337
aS'http://www.food.com/library/harissa-827'
p338
aS'http://www.food.com/library/marzipan-546'
p339
aS'http://www.food.com/library/arugula-189'
p340
aS'http://www.food.com/library/mesclun-847'
p341
aS'http://www.food.com/library/kaffir-lime-452'
p342
aS'http://www.food.com/library/tomato-sauce-153'
p343
aS'http://www.food.com/library/cheese-520'
p344
aS'http://www.food.com/library/wild-rice-290'
p345
aS'http://www.food.com/library/asparagus-126'
p346
aS'http://www.food.com/library/date-sugar-488'
p347
aS'http://www.food.com/library/turmeric-349'
p348
aS'http://www.food.com/library/grits-836'
p349
aS'http://www.food.com/library/porcino-281'
p350
aS'http://www.food.com/library/chard-217'
p351
aS'http://www.food.com/library/macaroni-158'
p352
aS'http://www.food.com/library/fish-sauce-27'
p353
aS'http://www.food.com/library/phyllo-dough-51'
p354
aS'http://www.food.com/library/bel-paese-615'
p355
aS'http://www.food.com/library/pomegranate-280'
p356
aS'http://www.food.com/library/plum-tomato-119'
p357
aS'http://www.food.com/library/dill-164'
p358
aS'http://www.food.com/library/fennel-seeds-25'
p359
aS'http://www.food.com/library/egg-142'
p360
aS'http://www.food.com/library/cauliflower-214'
p361
aS'http://www.food.com/library/kale-254'
p362
aS'http://www.food.com/library/grape-244'
p363
aS'http://www.food.com/library/gelatin-431'
p364
aS'http://www.food.com/library/rum-180'
p365
aS'http://www.food.com/library/xanthan-gum-687'
p366
aS'http://www.food.com/library/shrimp-paste-905'
p367
aS'http://www.food.com/recipe/marshas-whole-wheat-pizza-76633'
p368
aS'http://www.food.com/library/paprika-335'
p369
aS'http://www.food.com/library/oatmeal-465'
p370
aS'http://www.food.com/recipe/sweet-tart-crust-19679'
p371
aS'http://www.food.com/library/rhubarb-289'
p372
aS'http://www.food.com/library/zest-364'
p373
aS'http://www.food.com/library/jaggery-593'
p374
aS'http://www.food.com/library/hazelnut-632'
p375
aS'http://www.food.com/library/cucuzza-569'
p376
aS'http://www.food.com/library/five-spice-powder-440'
p377
aS'http://www.food.com/library/great-northern-bean-400'
p378
aS'http://www.food.com/recipe/roasted-garlic-pearl-onions-with-herbs-54099'
p379
aS'http://www.food.com/library/mustard-seed-and-powder-93'
p380
aS'http://www.food.com/library/oyster-sauce-37'
p381
aS'http://www.food.com/library/anchovy-185'
p382
aS'http://www.food.com/library/squash-129'
p383
aS'http://www.food.com/library/soybean-390'
p384
aS'http://www.food.com/library/fig-240'
p385
aS'http://www.food.com/library/apple-butter-2'
p386
aS'http://www.food.com/library/mostaccioli-89'
p387
aS'http://www.food.com/library/english-mustard-482'
p388
aS'http://www.food.com/library/worcestershire-sauce-176'
p389
aS'http://www.food.com/library/asafetida-355'
p390
aS'http://www.food.com/library/zaatar-567'
p391
aS'http://www.food.com/library/apricot-187'
p392
aS'http://www.food.com/library/salt-359'
p393
aS'http://www.food.com/library/cream-of-tartar-478'
p394
aS'http://www.food.com/library/chicken-liver-222'
p395
aS'http://www.food.com/library/coriander-17'
p396
aS'http://www.food.com/library/couscous-19'
p397
aS'http://www.food.com/library/washed-rind-cheese-912'
p398
aS'http://www.food.com/library/gouda-623'
p399
aS'http://www.food.com/library/cranberry-233'
p400
aS'http://www.food.com/library/chinese-cabbage-535'
p401
aS'http://www.food.com/library/tofu-108'
p402
aS'http://www.food.com/library/monosodium-glutamate-798'
p403
aS'http://www.food.com/library/huckleberry-170'
p404
aS'http://www.food.com/library/potato-106'
p405
aS'http://www.food.com/library/french-style-green-bean-434'
p406
aS'http://www.food.com/library/hearts-of-palm-699'
p407
aS'http://www.food.com/library/tomato-paste-393'
p408
aS'http://www.food.com/library/raspberry-287'
p409
aS'http://www.food.com/library/celeriac-102'
p410
aS'http://www.food.com/library/powdered-sugar-140'
p411
aS'http://www.food.com/library/navy-bean-380'
p412
aS'http://www.food.com/library/barley-38'
p413
aS'http://www.food.com/library/quark-566'
p414
aS'http://www.food.com/library/fenugreek-326'
p415
aS'http://www.food.com/library/lecithin-485'
p416
aS'http://www.food.com/library/cocoa-powder-136'
p417
aS'http://www.food.com/library/pickle-607'
p418
aS'http://www.food.com/library/spaetzle-300'
p419
aS'http://www.food.com/library/okra-271'
p420
aS'http://www.food.com/library/tapioca-503'
p421
aS'http://www.food.com/library/guava-246'
p422
aS'http://www.food.com/library/sweet-potato-307'
p423
aS'http://www.food.com/library/sunflower-seed-813'
p424
aS'http://www.food.com/library/madeira-710'
p425
aS'http://www.food.com/library/watermelon-56'
p426
aS'http://www.food.com/library/chickpea-220'
p427
aS'http://www.food.com/library/ice-cream-252'
p428
aS'http://www.food.com/library/ladyfingers-157'
p429
aS'http://www.food.com/library/bechamel-442'
p430
aS'http://www.food.com/library/pudding-mix-888'
p431
aS'http://www.food.com/library/feta-cheese-26'
p432
aS'http://www.food.com/library/alum-796'
p433
aS'http://www.food.com/library/flounder-71'
p434
aS'http://www.food.com/library/mascarpone-264'
p435
aS'http://www.food.com/library/alfredo-sauce-803'
p436
aS'http://www.food.com/library/red-snapper-288'
p437
aS'http://www.food.com/library/togarashi-50'
p438
aS'http://www.food.com/recipe/gluten-free-flour-blend-208061'
p439
aS'http://www.food.com/library/yogurt-315'
p440
aS'http://www.food.com/library/mortadella-712'
p441
aS'http://www.food.com/library/liver-212'
p442
aS'http://www.food.com/library/creme-fraiche-652'
p443
aS'http://www.food.com/library/fennel-24'
p444
aS'http://www.food.com/library/barbecue-sauce-790'
p445
aS'http://www.food.com/library/pepper-337'
p446
aS'http://www.food.com/library/salsify-745'
p447
aS'http://www.food.com/library/pine-nuts-39'
p448
aS'http://www.food.com/library/egg-substitute-424'
p449
aS'http://www.food.com/library/soft-shell-crab-232'
p450
aS'http://www.food.com/library/white-chocolate-225'
p451
aS'http://www.food.com/library/broth-154'
p452
aS'http://www.food.com/library/butter-141'
p453
aS'http://www.food.com/library/baguette-783'
p454
aS'http://www.food.com/library/grains-of-paradise-904'
p455
aS'http://www.food.com/library/caper-13'
p456
aS'http://www.food.com/library/raw-sugar-484'
p457
aS'http://www.food.com/library/cantaloupe-559'
p458
aS'http://www.food.com/library/gorgonzola-873'
p459
aS'http://www.food.com/library/cider-12'
p460
aS'http://www.food.com/library/salmon-78'
p461
aS'http://www.food.com/library/argan-oil-698'
p462
aS'http://www.food.com/library/fava-bean-193'
p463
aS'http://www.food.com/library/tea-60'
p464
aS'http://www.food.com/library/green-bean-194'
p465
aS'http://www.food.com/library/lamb-203'
p466
aS'http://www.food.com/library/artichoke-188'
p467
aS'http://www.food.com/library/turkey-310'
p468
aS'http://www.food.com/library/wheat-germ-633'
p469
aS'http://www.food.com/library/mirepoix-545'
p470
aS'http://www.food.com/library/corned-beef-230'
p471
aS'http://www.food.com/library/sweetened-condensed-milk-146'
p472
aS'http://www.food.com/library/amaretto-177'
p473
aS'http://www.food.com/library/crystallized-ginger-65'
p474
aS'http://www.food.com/library/cashew-nut-642'
p475
aS'http://www.food.com/library/parsnip-750'
p476
aS'http://www.food.com/library/beet-200'
p477
aS'http://www.food.com/library/lobster-261'
p478
aS'http://www.food.com/library/ras-el-hanout-903'
p479
aS'http://www.food.com/library/processed-cheese-499'
p480
aS'http://www.food.com/library/kudzu-555'
p481
aS'http://www.food.com/library/adobo-433'
p482
aS'http://www.food.com/library/gram-flour-438'
p483
aS'http://www.food.com/library/jelly-bean-729'
p484
aS'http://www.food.com/library/tabasco-sauce-743'
p485
aS'http://www.food.com/library/cayenne-pepper-320'
p486
aS'http://www.food.com/library/saffron-341'
p487
aS'http://www.food.com/library/chocolate-224'
p488
aS'http://www.food.com/library/cream-of-coconut-643'
p489
aS'http://www.food.com/library/sole-81'
p490
aS'http://www.food.com/library/crouton-686'
p491
aS'http://www.food.com/library/palm-oil-700'
p492
aS'http://www.food.com/library/dragee-577'
p493
aS'http://www.food.com/library/chile-pepper-323'
p494
aS'http://www.food.com/library/thyme-348'
p495
aS'http://www.food.com/library/black-eyed-pea-540'
p496
aS'http://www.food.com/library/honey-155'
p497
aS'http://www.food.com/library/queso-679'
p498
aS'http://www.food.com/library/pasta-filata-cheese-914'
p499
aS'http://www.food.com/library/cardamom-319'
p500
aS'http://www.food.com/library/stilton-598'
p501
aS'http://www.food.com/library/ancho-chile-pepper-3'
p502
aS'http://www.food.com/library/mahi-mahi-262'
p503
aS'http://www.food.com/library/spanish-cheese-113'
p504
aS'http://www.food.com/library/miracle-whip-dressing-568'
p505
aS'http://www.food.com/library/brown-rice-515'
p506
aS'http://www.food.com/library/manzanilla-olive-112'
p507
aS'http://www.food.com/library/mace-718'
p508
aS'http://www.food.com/library/cassava-741'
p509
aS'http://www.food.com/library/chowder-864'
p510
aS'http://www.food.com/library/semolina-471'
p511
aS'http://www.food.com/library/brussels-sprout-208'
p512
aS'http://www.food.com/library/amchoor-powder-604'
p513
aS'http://www.food.com/library/herb-168'
p514
aS'http://www.food.com/library/arborio-rice-5'
p515
aS'http://www.food.com/library/cheddar-cheese-564'
p516
aS'http://www.food.com/library/onion-powder-502'
p517
aS'http://www.food.com/library/pumpkin-pie-spice-173'
p518
aS'http://www.food.com/library/chives-52'
p519
aS'http://www.food.com/library/curry-paste-551'
p520
aS'http://www.food.com/library/pickling-lime-730'
p521
aS'http://www.food.com/library/smoke-seasoning-58'
p522
aS'http://www.food.com/library/masa-harina-35'
p523
aS'http://www.food.com/library/aquavit-701'
p524
aS'http://www.food.com/library/basil-317'
p525
aS'http://www.food.com/library/bamboo-shoot-742'
p526
aS'http://www.food.com/library/rice-vinegar-43'
p527
aS'http://www.food.com/library/basmati-rice-9'
p528
aS'http://www.food.com/library/tonic-water-675'
p529
aS'http://www.food.com/library/leek-105'
p530
aS'http://www.food.com/library/hamburger-248'
p531
aS'http://www.food.com/library/rice-paper-42'
p532
aS'http://www.food.com/library/durian-817'
p533
aS'http://www.food.com/library/masala-454'
p534
aS'http://www.food.com/library/zinfandel-wine-736'
p535
aS'http://www.food.com/library/kitchen-bouquet-641'
p536
aS'http://www.food.com/library/puff-pastry-527'
p537
aS'http://www.food.com/library/orange-flower-water-354'
p538
aS'http://www.food.com/library/vegetable-marrow-840'
p539
aS'http://www.food.com/library/perch-76'
p540
aS'http://www.food.com/library/mizuna-711'
p541
aS'http://www.food.com/library/mixed-spice-489'
p542
aS'http://www.food.com/library/mandarin-orange-426'
p543
aS'http://www.food.com/library/capsicum-398'
p544
aS'http://www.food.com/library/swiss-cheese-612'
p545
aS'http://www.food.com/library/tempeh-109'
p546
aS'http://www.food.com/library/farmer-cheese-618'
p547
aS'http://www.food.com/library/prune-284'
p548
aS'http://www.food.com/library/snow-pea-550'
p549
aS'http://www.food.com/library/clam-226'
p550
aS'http://www.food.com/library/mozzarella-746'
p551
aS'http://www.food.com/library/turbinado-sugar-45'
p552
aS'http://www.food.com/library/shortening-430'
p553
aS'http://www.food.com/library/ghee-425'
p554
aS'http://www.food.com/library/lentil-258'
p555
aS'http://www.food.com/library/pork-282'
p556
aS'http://www.food.com/library/truffle-309'
p557
aS'http://www.food.com/library/obrien-potato-429'
p558
aS'http://www.food.com/library/trout-308'
p559
aS'http://www.food.com/library/grouper-72'
p560
aS'http://www.food.com/library/nori-696'
p561
aS'http://www.food.com/library/anchovy-paste-121'
p562
aS'http://www.food.com/library/plum-66'
p563
aS'http://www.food.com/library/radish-286'
p564
aS'http://www.food.com/library/cinnamon-324'
p565
aS'http://www.food.com/library/creme-de-cassis-653'
p566
aS'http://www.food.com/library/olive-oil-495'
p567
aS'http://www.food.com/library/udon-noodles-46'
p568
aS'http://www.food.com/library/star-anise-345'
p569
aS'http://www.food.com/library/buttermilk-143'
p570
aS'http://www.food.com/library/creme-de-cacao-834'
p571
aS'http://www.food.com/library/caraway-seed-318'
p572
aS'http://www.food.com/library/cream-cheese-506'
p573
aS'http://www.food.com/library/kumquat-257'
p574
aS'http://www.food.com/library/cachaca-578'
p575
aS'http://www.food.com/library/tomato-juice-152'
p576
aS'http://www.food.com/library/milk-360'
p577
aS'http://www.food.com/library/malt-vinegar-630'
p578
aS'http://www.food.com/library/peanut-336'
p579
aS'http://www.food.com/library/baking-soda-7'
p580
aS'http://www.food.com/library/cornmeal-59'
p581
aS'http://www.food.com/library/maple-syrup-328'
p582
aS'http://www.food.com/library/tahini-49'
p583
aS'http://www.food.com/library/watercress-47'
p584
aS'http://www.food.com/library/fontina-cheese-558'
p585
aS'http://www.food.com/library/preserved-lemon-854'
p586
aS'http://www.food.com/library/beer-519'
p587
aS'http://www.food.com/library/provolone-662'
p588
aS'http://www.food.com/library/red-chile-powder-640'
p589
aS'http://www.food.com/library/black-bean-192'
p590
aS'http://www.food.com/library/nectarine-269'
p591
aS'http://www.food.com/library/wine-vinegar-493'
p592
aS'http://www.food.com/library/bacon-352'
p593
aS'http://www.food.com/library/screwpine-leaves-837'
p594
aS'http://www.food.com/library/eggplant-128'
p595
aS'http://www.food.com/library/gruyere-844'
p596
aS'http://www.food.com/library/kiwi-fruit-255'
p597
aS'http://www.food.com/library/panko-669'
p598
aS'http://www.food.com/library/applesauce-439'
p599
aS'http://www.food.com/recipe/brownie-mix-31492'
p600
aS'http://www.food.com/library/ginger-166'
p601
aS'http://www.food.com/library/grapefruit-243'
p602
aS'http://www.food.com/library/soymilk-561'
p603
aS'http://www.food.com/library/pimiento-172'
p604
aS'http://www.food.com/library/pineapple-278'
p605
aS'http://www.food.com/library/brazil-nut-409'
p606
aS'http://www.food.com/library/lettuce-259'
p607
aS'http://www.food.com/library/poultry-seasoning-734'
p608
aS'http://www.food.com/library/orange-122'
p609
aS'http://www.food.com/library/szechuan-peppercorn-441'
p610
aS'http://www.food.com/library/nigella-seeds-645'
p611
aS'http://www.food.com/library/rabbit-249'
p612
aS'http://www.food.com/library/greens-245'
p613
aS'http://www.food.com/library/green-onion-363'
p614
aS'http://www.food.com/library/bass-191'
p615
a.